target datalayout = "e-m:e-p270:32:32-p271:32:32-p272:64:64-i64:64-i128:128-f80:128-n8:16:32:64-S128"
target triple = "x86_64-pc-linux-gnu"

%"class.duckdb_apache::thrift::TException" = type { %"class.std::exception", %"class.std::__cxx11::basic_string" }
%"class.std::exception" = type { ptr }
%"class.std::__cxx11::basic_string" = type { %"struct.std::__cxx11::basic_string<char>::_Alloc_hider", i64, %union.anon }
%"struct.std::__cxx11::basic_string<char>::_Alloc_hider" = type { ptr }
%union.anon = type { i64, [8 x i8] }
%"class.duckdb_apache::thrift::transport::TTransportException" = type <{ %"class.duckdb_apache::thrift::TException", i32, [4 x i8] }>

@.str = private unnamed_addr constant [49 x i8] c"TTransportException: Unknown transport exception\00", align 1
@.str.1 = private unnamed_addr constant [40 x i8] c"TTransportException: Transport not open\00", align 1
@.str.2 = private unnamed_addr constant [31 x i8] c"TTransportException: Timed out\00", align 1
@.str.3 = private unnamed_addr constant [33 x i8] c"TTransportException: End of file\00", align 1
@.str.4 = private unnamed_addr constant [33 x i8] c"TTransportException: Interrupted\00", align 1
@.str.5 = private unnamed_addr constant [39 x i8] c"TTransportException: Invalid arguments\00", align 1
@.str.6 = private unnamed_addr constant [36 x i8] c"TTransportException: Corrupted Data\00", align 1
@.str.7 = private unnamed_addr constant [36 x i8] c"TTransportException: Internal error\00", align 1
@.str.8 = private unnamed_addr constant [46 x i8] c"TTransportException: (Invalid exception type)\00", align 1

; Function Attrs: mustprogress nounwind uwtable
define available_externally noundef ptr @_ZNKSt7__cxx1112basic_stringIcSt11char_traitsIcESaIcEE7_M_dataEv(ptr noundef nonnull align 8 dereferenceable(32) %0) #0 align 2 {
  %2 = alloca ptr, align 8
  store ptr %0, ptr %2, align 8, !tbaa !17
  %3 = load ptr, ptr %2, align 8
  %4 = getelementptr inbounds nuw %"class.std::__cxx11::basic_string", ptr %3, i32 0, i32 0
  %5 = getelementptr inbounds nuw %"struct.std::__cxx11::basic_string<char>::_Alloc_hider", ptr %4, i32 0, i32 0
  %6 = load ptr, ptr %5, align 8, !tbaa !28
  ret ptr %6
}

; Function Attrs: mustprogress nounwind uwtable
define available_externally noundef i64 @_ZNKSt7__cxx1112basic_stringIcSt11char_traitsIcESaIcEE4sizeEv(ptr noundef nonnull align 8 dereferenceable(32) %0) #0 align 2 {
  %2 = alloca ptr, align 8
  store ptr %0, ptr %2, align 8, !tbaa !17
  %3 = load ptr, ptr %2, align 8
  %4 = getelementptr inbounds nuw %"class.std::__cxx11::basic_string", ptr %3, i32 0, i32 1
  %5 = load i64, ptr %4, align 8, !tbaa !26
  ret i64 %5
}

; Function Attrs: mustprogress nounwind uwtable
define available_externally noundef ptr @_ZNKSt7__cxx1112basic_stringIcSt11char_traitsIcESaIcEE5c_strEv(ptr noundef nonnull align 8 dereferenceable(32) %0) #0 align 2 {
  %2 = alloca ptr, align 8
  store ptr %0, ptr %2, align 8, !tbaa !17
  %3 = load ptr, ptr %2, align 8
  %4 = call noundef ptr @_ZNKSt7__cxx1112basic_stringIcSt11char_traitsIcESaIcEE7_M_dataEv(ptr noundef nonnull align 8 dereferenceable(32) %3)
  ret ptr %4
}

; Function Attrs: mustprogress nounwind uwtable
define available_externally noundef zeroext i1 @_ZNKSt7__cxx1112basic_stringIcSt11char_traitsIcESaIcEE5emptyEv(ptr noundef nonnull align 8 dereferenceable(32) %0) #0 align 2 {
  %2 = alloca ptr, align 8
  store ptr %0, ptr %2, align 8, !tbaa !17
  %3 = load ptr, ptr %2, align 8
  %4 = call noundef i64 @_ZNKSt7__cxx1112basic_stringIcSt11char_traitsIcESaIcEE4sizeEv(ptr noundef nonnull align 8 dereferenceable(32) %3) #5
  %5 = icmp eq i64 %4, 0
  ret i1 %5
}

; Function Attrs: mustprogress nounwind uwtable
define noundef ptr @_ZNK13duckdb_apache6thrift9transport19TTransportException4whatEv(ptr noundef nonnull align 8 dereferenceable(44) %0) unnamed_addr #0 align 2 {
  %2 = alloca ptr, align 8
  %3 = alloca ptr, align 8
  store ptr %0, ptr %3, align 8, !tbaa !3
  %4 = load ptr, ptr %3, align 8
  %5 = getelementptr inbounds nuw %"class.duckdb_apache::thrift::TException", ptr %4, i32 0, i32 1
  %6 = call noundef zeroext i1 @_ZNKSt7__cxx1112basic_stringIcSt11char_traitsIcESaIcEE5emptyEv(ptr noundef nonnull align 8 dereferenceable(32) %5) #5
  br i1 %6, label %7, label %19

7:                                                ; preds = %1
  %8 = getelementptr inbounds nuw %"class.duckdb_apache::thrift::transport::TTransportException", ptr %4, i32 0, i32 1
  %9 = load i32, ptr %8, align 8, !tbaa !8
  switch i32 %9, label %18 [
    i32 0, label %10
    i32 1, label %11
    i32 2, label %12
    i32 3, label %13
    i32 4, label %14
    i32 5, label %15
    i32 6, label %16
    i32 7, label %17
  ]

10:                                               ; preds = %7
  store ptr @.str, ptr %2, align 8
  br label %22

11:                                               ; preds = %7
  store ptr @.str.1, ptr %2, align 8
  br label %22

12:                                               ; preds = %7
  store ptr @.str.2, ptr %2, align 8
  br label %22

13:                                               ; preds = %7
  store ptr @.str.3, ptr %2, align 8
  br label %22

14:                                               ; preds = %7
  store ptr @.str.4, ptr %2, align 8
  br label %22

15:                                               ; preds = %7
  store ptr @.str.5, ptr %2, align 8
  br label %22

16:                                               ; preds = %7
  store ptr @.str.6, ptr %2, align 8
  br label %22

17:                                               ; preds = %7
  store ptr @.str.7, ptr %2, align 8
  br label %22

18:                                               ; preds = %7
  store ptr @.str.8, ptr %2, align 8
  br label %22

19:                                               ; preds = %1
  %20 = getelementptr inbounds nuw %"class.duckdb_apache::thrift::TException", ptr %4, i32 0, i32 1
  %21 = call noundef ptr @_ZNKSt7__cxx1112basic_stringIcSt11char_traitsIcESaIcEE5c_strEv(ptr noundef nonnull align 8 dereferenceable(32) %20) #5
  store ptr %21, ptr %2, align 8
  br label %22

22:                                               ; preds = %19, %18, %17, %16, %15, %14, %13, %12, %11, %10
  %23 = load ptr, ptr %2, align 8
  ret ptr %23
}