; Function Attrs: mustprogress nofree norecurse nosync nounwind willreturn memory(argmem: read) uwtable
define noundef ptr @_ZNK13duckdb_apache6thrift9transport19TTransportException4whatEv(ptr noundef nonnull readonly align 8 captures(none) dereferenceable(44) %0) unnamed_addr #0 align 2 {
  %2 = getelementptr inbounds nuw i8, ptr %0, i64 16
  %3 = load i64, ptr %2, align 8, !tbaa !3
  %4 = icmp eq i64 %3, 0
  br i1 %4, label %5, label %9

5:                                                ; preds = %1
  %6 = getelementptr inbounds nuw i8, ptr %0, i64 40
  %7 = load i32, ptr %6, align 8, !tbaa !11
  %8 = icmp ult i32 %7, 8
  br i1 %8, label %switch.lookup, label %13

9:                                                ; preds = %1
  %10 = getelementptr inbounds nuw i8, ptr %0, i64 8
  %11 = load ptr, ptr %10, align 8, !tbaa !16
  br label %13

switch.lookup:                                    ; preds = %5
  %12 = zext nneg i32 %7 to i64
  %switch.gep = getelementptr inbounds nuw [8 x ptr], ptr @switch.table._ZNK13duckdb_apache6thrift9transport19TTransportException4whatEv, i64 0, i64 %12
  %switch.load = load ptr, ptr %switch.gep, align 8
  br label %13

13:                                               ; preds = %5, %switch.lookup, %9
  %.0 = phi ptr [ %11, %9 ], [ %switch.load, %switch.lookup ], [ @.str.8, %5 ]
  ret ptr %.0
}